; ModuleID = 'source-C-CXX/4/1204.c'
source_filename = "source-C-CXX/4/1204.c"
target datalayout = "e-m:e-p270:32:32-p271:32:32-p272:64:64-i64:64-f80:128-n8:16:32:64-S128"
target triple = "x86_64-pc-linux-gnu"

@.str = private unnamed_addr constant [4 x i8] c"%lf\00", align 1
@.str.1 = private unnamed_addr constant [3 x i8] c"%s\00", align 1
@.str.2 = private unnamed_addr constant [6 x i8] c"error\00", align 1
@.str.3 = private unnamed_addr constant [4 x i8] c"yes\00", align 1
@.str.4 = private unnamed_addr constant [3 x i8] c"no\00", align 1

; Function Attrs: nofree nounwind sspstrong uwtable
define dso_local i32 @main() local_unnamed_addr #0 {
  %1 = alloca double, align 8
  %2 = alloca [502 x i8], align 16
  %3 = alloca [502 x i8], align 16
  %4 = bitcast double* %1 to i8*
  call void @llvm.lifetime.start.p0i8(i64 8, i8* nonnull %4) #4
  %5 = getelementptr inbounds [502 x i8], [502 x i8]* %2, i64 0, i64 0
  call void @llvm.lifetime.start.p0i8(i64 502, i8* nonnull %5) #4
  %6 = getelementptr inbounds [502 x i8], [502 x i8]* %3, i64 0, i64 0
  call void @llvm.lifetime.start.p0i8(i64 502, i8* nonnull %6) #4
  %7 = call i32 (i8*, ...) @__isoc99_scanf(i8* getelementptr inbounds ([4 x i8], [4 x i8]* @.str, i64 0, i64 0), double* nonnull %1)
  %8 = call i32 (i8*, ...) @__isoc99_scanf(i8* getelementptr inbounds ([3 x i8], [3 x i8]* @.str.1, i64 0, i64 0), i8* nonnull %5)
  %9 = call i32 (i8*, ...) @__isoc99_scanf(i8* getelementptr inbounds ([3 x i8], [3 x i8]* @.str.1, i64 0, i64 0), i8* nonnull %6)
  %10 = call i64 @strlen(i8* noundef nonnull %5) #5
  %11 = trunc i64 %10 to i32
  %12 = call i64 @strlen(i8* noundef nonnull %6) #5
  %13 = trunc i64 %12 to i32
  %14 = icmp eq i32 %11, %13
  br i1 %14, label %15, label %35

15:                                               ; preds = %0, %23
  %16 = phi i64 [ %27, %23 ], [ 0, %0 ]
  %17 = phi i32 [ %26, %23 ], [ 0, %0 ]
  %18 = getelementptr inbounds [502 x i8], [502 x i8]* %2, i64 0, i64 %16
  %19 = load i8, i8* %18, align 1, !tbaa !5
  switch i8 %19, label %35 [
    i8 0, label %28
    i8 65, label %20
    i8 84, label %20
    i8 67, label %20
    i8 71, label %20
  ]

20:                                               ; preds = %15, %15, %15, %15
  %21 = getelementptr inbounds [502 x i8], [502 x i8]* %3, i64 0, i64 %16
  %22 = load i8, i8* %21, align 1, !tbaa !5
  switch i8 %22, label %35 [
    i8 65, label %23
    i8 84, label %23
    i8 67, label %23
    i8 71, label %23
  ]

23:                                               ; preds = %20, %20, %20, %20
  %24 = icmp eq i8 %19, %22
  %25 = zext i1 %24 to i32
  %26 = add nuw nsw i32 %17, %25
  %27 = add nuw i64 %16, 1
  br label %15, !llvm.loop !8

28:                                               ; preds = %15
  %29 = sitofp i32 %17 to double
  %30 = sitofp i32 %11 to double
  %31 = fdiv double %29, %30
  %32 = load double, double* %1, align 8, !tbaa !10
  %33 = fcmp ogt double %31, %32
  %34 = select i1 %33, i8* getelementptr inbounds ([4 x i8], [4 x i8]* @.str.3, i64 0, i64 0), i8* getelementptr inbounds ([3 x i8], [3 x i8]* @.str.4, i64 0, i64 0)
  br label %35

35:                                               ; preds = %15, %20, %28, %0
  %36 = phi i8* [ getelementptr inbounds ([6 x i8], [6 x i8]* @.str.2, i64 0, i64 0), %0 ], [ %34, %28 ], [ getelementptr inbounds ([6 x i8], [6 x i8]* @.str.2, i64 0, i64 0), %20 ], [ getelementptr inbounds ([6 x i8], [6 x i8]* @.str.2, i64 0, i64 0), %15 ]
  %37 = call i32 (i8*, ...) @printf(i8* nonnull dereferenceable(1) %36)
  call void @llvm.lifetime.end.p0i8(i64 502, i8* nonnull %6) #4
  call void @llvm.lifetime.end.p0i8(i64 502, i8* nonnull %5) #4
  call void @llvm.lifetime.end.p0i8(i64 8, i8* nonnull %4) #4
  ret i32 0
}

; Function Attrs: argmemonly mustprogress nofree nosync nounwind willreturn
declare void @llvm.lifetime.start.p0i8(i64 immarg, i8* nocapture) #1

; Function Attrs: nofree nounwind
declare noundef i32 @__isoc99_scanf(i8* nocapture noundef readonly, ...) local_unnamed_addr #2

; Function Attrs: argmemonly mustprogress nofree nounwind readonly willreturn
declare i64 @strlen(i8* nocapture) local_unnamed_addr #3

; Function Attrs: nofree nounwind
declare noundef i32 @printf(i8* nocapture noundef readonly, ...) local_unnamed_addr #2

; Function Attrs: argmemonly mustprogress nofree nosync nounwind willreturn
declare void @llvm.lifetime.end.p0i8(i64 immarg, i8* nocapture) #1


!llvm.module.flags = !{!0, !1, !2, !3}
!llvm.ident = !{!4}

!0 = !{i32 1, !"wchar_size", i32 4}
!1 = !{i32 7, !"PIC Level", i32 2}
!2 = !{i32 7, !"PIE Level", i32 2}
!3 = !{i32 7, !"uwtable", i32 1}
!4 = !{!"clang version 13.0.0"}
!5 = !{!6, !6, i64 0}
!6 = !{!"omnipotent char", !7, i64 0}
!7 = !{!"Simple C/C++ TBAA"}
!8 = distinct !{!8, !9}
!9 = !{!"llvm.loop.mustprogress"}
!10 = !{!11, !11, i64 0}
!11 = !{!"double", !6, i64 0}
